target datalayout = "e-m:e-p270:32:32-p271:32:32-p272:64:64-i64:64-i128:128-f80:128-n8:16:32:64-S128"
target triple = "x86_64-pc-linux-gnu"

%"struct.folly::detail::PlatformTFOSettings" = type { i32, i32 }
%"class.std::basic_ifstream" = type { %"class.std::basic_istream.base", %"class.std::basic_filebuf", %"class.std::basic_ios" }
%"class.std::basic_istream.base" = type { ptr, i64 }
%"class.std::basic_filebuf" = type { %"class.std::basic_streambuf", %union.pthread_mutex_t, %"class.std::__basic_file", i32, %struct.__mbstate_t, %struct.__mbstate_t, %struct.__mbstate_t, ptr, i64, i8, i8, i8, i8, ptr, ptr, i8, ptr, ptr, i64, ptr, ptr }
%"class.std::basic_streambuf" = type { ptr, ptr, ptr, ptr, ptr, ptr, ptr, %"class.std::locale" }
%"class.std::locale" = type { ptr }
%union.pthread_mutex_t = type { %struct.__pthread_mutex_s }
%struct.__pthread_mutex_s = type { i32, i32, i32, i32, i32, i16, i16, %struct.__pthread_internal_list }
%struct.__pthread_internal_list = type { ptr, ptr }
%"class.std::__basic_file" = type <{ ptr, i8, [7 x i8] }>
%struct.__mbstate_t = type { i32, %union.anon }
%union.anon = type { i32 }
%"class.std::basic_ios" = type { %"class.std::ios_base", ptr, i8, i8, ptr, ptr, ptr, ptr }
%"class.std::ios_base" = type { ptr, i64, i64, i32, i32, i32, ptr, %"struct.std::ios_base::_Words", [8 x %"struct.std::ios_base::_Words"], i32, ptr, %"class.std::locale" }
%"struct.std::ios_base::_Words" = type { ptr, i64 }

@_ZTISt9exception = external constant ptr
@.str = private unnamed_addr constant [32 x i8] c"/proc/sys/net/ipv4/tcp_fastopen\00", align 1

; Function Attrs: mustprogress nounwind uwtable
define available_externally noundef zeroext i1 @_ZNKSt13basic_filebufIcSt11char_traitsIcEE7is_openEv(ptr noundef nonnull align 8 dereferenceable(240) %0) #7 align 2 {
  %2 = alloca ptr, align 8
  store ptr %0, ptr %2, align 8, !tbaa !65
  %3 = load ptr, ptr %2, align 8
  %4 = getelementptr inbounds nuw %"class.std::basic_filebuf", ptr %3, i32 0, i32 2
  %5 = call noundef zeroext i1 @_ZNKSt12__basic_fileIcE7is_openEv(ptr noundef nonnull align 8 dereferenceable(9) %4) #15
  ret i1 %5
}

; Function Attrs: mustprogress uwtable
define available_externally noundef nonnull align 8 dereferenceable(16) ptr @_ZNSirsERm(ptr noundef nonnull align 8 dereferenceable(16) %0, ptr noundef nonnull align 8 dereferenceable(8) %1) #0 align 2 {
  %3 = alloca ptr, align 8
  %4 = alloca ptr, align 8
  store ptr %0, ptr %3, align 8, !tbaa !35
  store ptr %1, ptr %4, align 8, !tbaa !37
  %5 = load ptr, ptr %3, align 8
  %6 = load ptr, ptr %4, align 8, !tbaa !37
  %7 = call noundef nonnull align 8 dereferenceable(16) ptr @_ZNSi10_M_extractImEERSiRT_(ptr noundef nonnull align 8 dereferenceable(16) %5, ptr noundef nonnull align 8 dereferenceable(8) %6)
  ret ptr %7
}

; Function Attrs: mustprogress nounwind uwtable
define available_externally noundef zeroext i1 @_ZNSt14basic_ifstreamIcSt11char_traitsIcEE7is_openEv(ptr noundef nonnull align 8 dereferenceable(256) %0) #7 align 2 {
  %2 = alloca ptr, align 8
  store ptr %0, ptr %2, align 8, !tbaa !27
  %3 = load ptr, ptr %2, align 8
  %4 = getelementptr inbounds nuw %"class.std::basic_ifstream", ptr %3, i32 0, i32 1
  %5 = call noundef zeroext i1 @_ZNKSt13basic_filebufIcSt11char_traitsIcEE7is_openEv(ptr noundef nonnull align 8 dereferenceable(240) %4) #5
  ret i1 %5
}

; Function Attrs: inlinehint mustprogress uwtable
define internal i64 @"_ZZN5folly6detail25tfo_platform_availabilityEvENK3$_0clEv"(ptr noundef nonnull align 1 dereferenceable(1) %0) #6 align 2 personality ptr @__gxx_personality_v0 {
  %2 = alloca %"struct.folly::detail::PlatformTFOSettings", align 4
  %3 = alloca ptr, align 8
  %4 = alloca i64, align 8
  %5 = alloca %"class.std::basic_ifstream", align 8
  %6 = alloca ptr, align 8
  %7 = alloca i32, align 4
  %8 = alloca ptr, align 8
  store ptr %0, ptr %3, align 8, !tbaa !23
  call void @llvm.lifetime.start.p0(i64 8, ptr %4) #5
  store i64 0, ptr %4, align 8, !tbaa !15
  call void @llvm.lifetime.start.p0(i64 520, ptr %5) #5
  invoke void @_ZNSt14basic_ifstreamIcSt11char_traitsIcEEC1EPKcSt13_Ios_Openmode(ptr noundef nonnull align 8 dereferenceable(256) %5, ptr noundef @.str, i32 noundef 8)
          to label %9 unwind label %15

9:                                                ; preds = %1
  %10 = invoke noundef zeroext i1 @_ZNSt14basic_ifstreamIcSt11char_traitsIcEE7is_openEv(ptr noundef nonnull align 8 dereferenceable(256) %5)
          to label %11 unwind label %19

11:                                               ; preds = %9
  br i1 %10, label %12, label %23

12:                                               ; preds = %11
  %13 = invoke noundef nonnull align 8 dereferenceable(16) ptr @_ZNSirsERm(ptr noundef nonnull align 8 dereferenceable(16) %5, ptr noundef nonnull align 8 dereferenceable(8) %4)
          to label %14 unwind label %19

14:                                               ; preds = %12
  br label %23

15:                                               ; preds = %1
  %16 = landingpad { ptr, i32 }
          cleanup
          catch ptr @_ZTISt9exception
  %17 = extractvalue { ptr, i32 } %16, 0
  store ptr %17, ptr %6, align 8
  %18 = extractvalue { ptr, i32 } %16, 1
  store i32 %18, ptr %7, align 4
  br label %24

19:                                               ; preds = %12, %9
  %20 = landingpad { ptr, i32 }
          cleanup
          catch ptr @_ZTISt9exception
  %21 = extractvalue { ptr, i32 } %20, 0
  store ptr %21, ptr %6, align 8
  %22 = extractvalue { ptr, i32 } %20, 1
  store i32 %22, ptr %7, align 4
  call void @_ZNSt14basic_ifstreamIcSt11char_traitsIcEED1Ev(ptr noundef nonnull align 8 dereferenceable(256) %5) #5
  br label %24

23:                                               ; preds = %14, %11
  call void @_ZNSt14basic_ifstreamIcSt11char_traitsIcEED1Ev(ptr noundef nonnull align 8 dereferenceable(256) %5) #5
  call void @llvm.lifetime.end.p0(i64 520, ptr %5) #5
  br label %32

24:                                               ; preds = %19, %15
  call void @llvm.lifetime.end.p0(i64 520, ptr %5) #5
  br label %25

25:                                               ; preds = %24
  %26 = load i32, ptr %7, align 4
  %27 = call i32 @llvm.eh.typeid.for.p0(ptr @_ZTISt9exception) #5
  %28 = icmp eq i32 %26, %27
  br i1 %28, label %29, label %66

29:                                               ; preds = %25
  call void @llvm.lifetime.start.p0(i64 8, ptr %8) #5
  %30 = load ptr, ptr %6, align 8
  %31 = call ptr @__cxa_begin_catch(ptr %30) #5
  store ptr %31, ptr %8, align 8
  call void @__cxa_end_catch()
  call void @llvm.lifetime.end.p0(i64 8, ptr %8) #5
  br label %32

32:                                               ; preds = %29, %23
  %33 = getelementptr inbounds nuw %"struct.folly::detail::PlatformTFOSettings", ptr %2, i32 0, i32 0
  store i32 0, ptr %33, align 4, !tbaa !24
  %34 = getelementptr inbounds nuw %"struct.folly::detail::PlatformTFOSettings", ptr %2, i32 0, i32 1
  store i32 0, ptr %34, align 4, !tbaa !26
  %35 = load i64, ptr %4, align 8, !tbaa !15
  %36 = and i64 %35, 1
  %37 = icmp eq i64 %36, 0
  br i1 %37, label %38, label %40

38:                                               ; preds = %32
  %39 = getelementptr inbounds nuw %"struct.folly::detail::PlatformTFOSettings", ptr %2, i32 0, i32 0
  store i32 0, ptr %39, align 4, !tbaa !24
  br label %49

40:                                               ; preds = %32
  %41 = load i64, ptr %4, align 8, !tbaa !15
  %42 = and i64 %41, 4
  %43 = icmp eq i64 %42, 0
  br i1 %43, label %44, label %46

44:                                               ; preds = %40
  %45 = getelementptr inbounds nuw %"struct.folly::detail::PlatformTFOSettings", ptr %2, i32 0, i32 0
  store i32 1, ptr %45, align 4, !tbaa !24
  br label %48

46:                                               ; preds = %40
  %47 = getelementptr inbounds nuw %"struct.folly::detail::PlatformTFOSettings", ptr %2, i32 0, i32 0
  store i32 2, ptr %47, align 4, !tbaa !24
  br label %48

48:                                               ; preds = %46, %44
  br label %49

49:                                               ; preds = %48, %38
  %50 = load i64, ptr %4, align 8, !tbaa !15
  %51 = and i64 %50, 2
  %52 = icmp eq i64 %51, 0
  br i1 %52, label %53, label %55

53:                                               ; preds = %49
  %54 = getelementptr inbounds nuw %"struct.folly::detail::PlatformTFOSettings", ptr %2, i32 0, i32 1
  store i32 0, ptr %54, align 4, !tbaa !26
  br label %64

55:                                               ; preds = %49
  %56 = load i64, ptr %4, align 8, !tbaa !15
  %57 = and i64 %56, 512
  %58 = icmp eq i64 %57, 0
  br i1 %58, label %59, label %61

59:                                               ; preds = %55
  %60 = getelementptr inbounds nuw %"struct.folly::detail::PlatformTFOSettings", ptr %2, i32 0, i32 1
  store i32 1, ptr %60, align 4, !tbaa !26
  br label %63

61:                                               ; preds = %55
  %62 = getelementptr inbounds nuw %"struct.folly::detail::PlatformTFOSettings", ptr %2, i32 0, i32 1
  store i32 2, ptr %62, align 4, !tbaa !26
  br label %63

63:                                               ; preds = %61, %59
  br label %64

64:                                               ; preds = %63, %53
  call void @llvm.lifetime.end.p0(i64 8, ptr %4) #5
  %65 = load i64, ptr %2, align 4
  ret i64 %65

66:                                               ; preds = %25
  call void @llvm.lifetime.end.p0(i64 8, ptr %4) #5
  br label %67

67:                                               ; preds = %66
  %68 = load ptr, ptr %6, align 8
  %69 = load i32, ptr %7, align 4
  %70 = insertvalue { ptr, i32 } poison, ptr %68, 0
  %71 = insertvalue { ptr, i32 } %70, i32 %69, 1
  resume { ptr, i32 } %71
}