; Function Attrs: inlinehint mustprogress uwtable
define internal fastcc range(i64 0, 8589934596) i64 @"_ZZN5folly6detail25tfo_platform_availabilityEvENK3$_0clEv"() unnamed_addr #5 align 2 personality ptr @__gxx_personality_v0 {
  %1 = alloca i64, align 8
  %2 = alloca %"class.std::basic_ifstream", align 8
  call void @llvm.lifetime.start.p0(i64 8, ptr nonnull %1) #9
  store i64 0, ptr %1, align 8, !tbaa !7
  call void @llvm.lifetime.start.p0(i64 520, ptr nonnull %2) #9
  invoke void @_ZNSt14basic_ifstreamIcSt11char_traitsIcEEC1EPKcSt13_Ios_Openmode(ptr noundef nonnull align 8 dereferenceable(256) %2, ptr noundef nonnull @.str, i32 noundef 8)
          to label %3 unwind label %8

3:                                                ; preds = %0
  %4 = getelementptr inbounds nuw i8, ptr %2, i64 120
  %5 = call noundef zeroext i1 @_ZNKSt12__basic_fileIcE7is_openEv(ptr noundef nonnull align 8 dereferenceable(9) %4) #11
  br i1 %5, label %6, label %_ZNSirsERm.exit

6:                                                ; preds = %3
  %7 = invoke noundef nonnull align 8 dereferenceable(16) ptr @_ZNSi10_M_extractImEERSiRT_(ptr noundef nonnull align 8 dereferenceable(16) %2, ptr noundef nonnull align 8 dereferenceable(8) %1)
          to label %_ZNSirsERm.exit unwind label %10

8:                                                ; preds = %0
  %9 = landingpad { ptr, i32 }
          cleanup
          catch ptr @_ZTISt9exception
  br label %12

10:                                               ; preds = %6
  %11 = landingpad { ptr, i32 }
          cleanup
          catch ptr @_ZTISt9exception
  call void @_ZNSt14basic_ifstreamIcSt11char_traitsIcEED1Ev(ptr noundef nonnull align 8 dereferenceable(256) %2) #9
  br label %12

_ZNSirsERm.exit:                                  ; preds = %6, %3
  call void @_ZNSt14basic_ifstreamIcSt11char_traitsIcEED1Ev(ptr noundef nonnull align 8 dereferenceable(256) %2) #9
  call void @llvm.lifetime.end.p0(i64 520, ptr nonnull %2) #9
  br label %17

12:                                               ; preds = %10, %8
  %.pn = phi { ptr, i32 } [ %11, %10 ], [ %9, %8 ]
  %.0 = extractvalue { ptr, i32 } %.pn, 1
  call void @llvm.lifetime.end.p0(i64 520, ptr nonnull %2) #9
  %13 = call i32 @llvm.eh.typeid.for.p0(ptr nonnull @_ZTISt9exception) #9
  %14 = icmp eq i32 %.0, %13
  br i1 %14, label %15, label %27

15:                                               ; preds = %12
  %.03 = extractvalue { ptr, i32 } %.pn, 0
  %16 = call ptr @__cxa_begin_catch(ptr %.03) #9
  call void @__cxa_end_catch()
  br label %17

17:                                               ; preds = %15, %_ZNSirsERm.exit
  %18 = load i64, ptr %1, align 8, !tbaa !7
  %19 = and i64 %18, 1
  %20 = icmp eq i64 %19, 0
  %21 = and i64 %18, 4
  %22 = icmp eq i64 %21, 0
  %. = select i1 %22, i64 1, i64 2
  %.sroa.0.0 = select i1 %20, i64 0, i64 %.
  %23 = and i64 %18, 2
  %24 = icmp eq i64 %23, 0
  %25 = and i64 %18, 512
  %26 = icmp eq i64 %25, 0
  %.5 = select i1 %26, i64 4294967296, i64 8589934592
  %.sroa.5.0 = select i1 %24, i64 0, i64 %.5
  call void @llvm.lifetime.end.p0(i64 8, ptr nonnull %1) #9
  %.sroa.0.0.insert.insert = or disjoint i64 %.sroa.5.0, %.sroa.0.0
  ret i64 %.sroa.0.0.insert.insert

27:                                               ; preds = %12
  call void @llvm.lifetime.end.p0(i64 8, ptr nonnull %1) #9
  resume { ptr, i32 } %.pn
}